
/root/CTF/Hitcon14/ty-b83f0d0edeb8cfad76d30eddc58da139:     file format elf64-littleaarch64


Disassembly of section .init:

0000000000400558 <_init>:
  400558:	a9bf7bfd 	stp	x29, x30, [sp,#-16]!
  40055c:	910003fd 	mov	x29, sp
  400560:	9400008c 	bl	400790 <call_weak_fn>
  400564:	a8c17bfd 	ldp	x29, x30, [sp],#16
  400568:	d65f03c0 	ret

Disassembly of section .plt:

0000000000400570 <_exit@plt-0x20>:
  400570:	a9bf7bf0 	stp	x16, x30, [sp,#-16]!
  400574:	90000090 	adrp	x16, 410000 <__FRAME_END__+0xf608>
  400578:	f947fe11 	ldr	x17, [x16,#4088]
  40057c:	913fe210 	add	x16, x16, #0xff8
  400580:	d61f0220 	br	x17
  400584:	d503201f 	nop
  400588:	d503201f 	nop
  40058c:	d503201f 	nop

0000000000400590 <_exit@plt>:
  400590:	b0000090 	adrp	x16, 411000 <_GLOBAL_OFFSET_TABLE_+0x28>
  400594:	f9400211 	ldr	x17, [x16]
  400598:	91000210 	add	x16, x16, #0x0
  40059c:	d61f0220 	br	x17

00000000004005a0 <open@plt>:
  4005a0:	b0000090 	adrp	x16, 411000 <_GLOBAL_OFFSET_TABLE_+0x28>
  4005a4:	f9400611 	ldr	x17, [x16,#8]
  4005a8:	91002210 	add	x16, x16, #0x8
  4005ac:	d61f0220 	br	x17

00000000004005b0 <__libc_start_main@plt>:
  4005b0:	b0000090 	adrp	x16, 411000 <_GLOBAL_OFFSET_TABLE_+0x28>
  4005b4:	f9400a11 	ldr	x17, [x16,#16]
  4005b8:	91004210 	add	x16, x16, #0x10
  4005bc:	d61f0220 	br	x17

00000000004005c0 <__gmon_start__@plt>:
  4005c0:	b0000090 	adrp	x16, 411000 <_GLOBAL_OFFSET_TABLE_+0x28>
  4005c4:	f9400e11 	ldr	x17, [x16,#24]
  4005c8:	91006210 	add	x16, x16, #0x18
  4005cc:	d61f0220 	br	x17

00000000004005d0 <abort@plt>:
  4005d0:	b0000090 	adrp	x16, 411000 <_GLOBAL_OFFSET_TABLE_+0x28>
  4005d4:	f9401211 	ldr	x17, [x16,#32]
  4005d8:	91008210 	add	x16, x16, #0x20
  4005dc:	d61f0220 	br	x17

00000000004005e0 <puts@plt>:
  4005e0:	b0000090 	adrp	x16, 411000 <_GLOBAL_OFFSET_TABLE_+0x28>
  4005e4:	f9401611 	ldr	x17, [x16,#40]
  4005e8:	9100a210 	add	x16, x16, #0x28
  4005ec:	d61f0220 	br	x17

00000000004005f0 <strtol@plt>:
  4005f0:	b0000090 	adrp	x16, 411000 <_GLOBAL_OFFSET_TABLE_+0x28>
  4005f4:	f9401a11 	ldr	x17, [x16,#48]
  4005f8:	9100c210 	add	x16, x16, #0x30
  4005fc:	d61f0220 	br	x17

0000000000400600 <__read_chk@plt>:
  400600:	b0000090 	adrp	x16, 411000 <_GLOBAL_OFFSET_TABLE_+0x28>
  400604:	f9401e11 	ldr	x17, [x16,#56]
  400608:	9100e210 	add	x16, x16, #0x38
  40060c:	d61f0220 	br	x17

0000000000400610 <read@plt>:
  400610:	b0000090 	adrp	x16, 411000 <_GLOBAL_OFFSET_TABLE_+0x28>
  400614:	f9402211 	ldr	x17, [x16,#64]
  400618:	91010210 	add	x16, x16, #0x40
  40061c:	d61f0220 	br	x17

0000000000400620 <alarm@plt>:
  400620:	b0000090 	adrp	x16, 411000 <_GLOBAL_OFFSET_TABLE_+0x28>
  400624:	f9402611 	ldr	x17, [x16,#72]
  400628:	91012210 	add	x16, x16, #0x48
  40062c:	d61f0220 	br	x17

Disassembly of section .text:

// x29 -> frame pointer (ebp)
// x30 -> return address (esp)

0000000000400630 <main>:
  400630:	a9bc7bfd 	stp	x29, x30, [sp,#-64]!        // x29(frame pointer)-> [sp-64] ; x30(link register)-> [sp-72] ; sp <- sp-64    
  400634:	910003fd 	mov	x29, sp                     // x29 <- sp [ frame pointer = stack pointer]                                   
  400638:	528003c0 	mov	w0, #0x1e                  	// w0 <- 0x1e
  40063c:	a90153f3 	stp	x19, x20, [sp,#16]          // [sp+16] <- x19 ; [sp+8] <- x20
  400640:	a9025bf5 	stp	x21, x22, [sp,#32]          // [sp+32] <- x21 ; [sp+24] <- x22
  400644:	97fffff7 	bl	400620 <alarm@plt>          // alarm()
  400648:	90000000 	adrp	x0, 400000 <_init-0x558>  // x0 <- 400000
  40064c:	52800001 	mov	w1, #0x0                   	// w1 <- 0        // 2nd argument
  400650:	91274000 	add	x0, x0, #0x9d0              // x0 <- x0 + 0x9d0     // 1st argument
  400654:	97ffffd3 	bl	4005a0 <open@plt>           // open("/dev/urandom")
  400658:	b9003ba0 	str	w0, [x29,#56]               // [x29 + 56] <- w0
  40065c:	52800101 	mov	w1, #0x8                   	// w1 <- 0x8
  400660:	9100c3a0 	add	x0, x29, #0x30              // x0 <- x29 + 0x30
  400664:	94000091 	bl	4008a8 <readline>           // readline()      // read 8 char from terminal with "\n" at end
  400668:	9100c3a0 	add	x0, x29, #0x30              // x0 <- x29 + 0x30
  40066c:	d2800001 	mov	x1, #0x0                   	// x1 <- 0x0
  400670:	52800142 	mov	w2, #0xa                   	// w2 <- 0xa
  400674:	97ffffdf 	bl	4005f0 <strtol@plt>         // strtol()       // convert read string to integer with base 10
  400678:	7104001f 	cmp	w0, #0x100                  // w0 == 0x100
  40067c:	aa0003f4 	mov	x20, x0                     // x20 <- x0
  400680:	540004e8 	b.hi	40071c <main+0xec>        // Higher (unsigned >)       // limitation of that integer is <=0x100
  400684:	b0000095 	adrp	x21, 411000 <_GLOBAL_OFFSET_TABLE_+0x28>     // x21 <- 411000
  400688:	92407c13 	and	x19, x0, #0xffffffff        // x19 <- x0 + 0xffffffff
  40068c:	9111a2b5 	add	x21, x21, #0x468            // x21 <- x21 + 0x468
  400690:	52800000 	mov	w0, #0x0                   	// w0 <- 0x0
  400694:	aa1503e1 	mov	x1, x21                     // x1 <- x21
  400698:	aa1303e2 	mov	x2, x19                     // x2 <- x19
  40069c:	d2808003 	mov	x3, #0x400                 	// x3 <- 0x400
  4006a0:	97ffffd8 	bl	400600 <__read_chk@plt>     // __read_chk()
  4006a4:	eb00027f 	cmp	x19, x0                     // x19 == x0
  4006a8:	54000441 	b.ne	400730 <main+0x100>       // if not equal
  4006ac:	b0000096 	adrp	x22, 411000 <_GLOBAL_OFFSET_TABLE_+0x28>     // x22 <- 411000
  4006b0:	9101a2d6 	add	x22, x22, #0x68             // x22 <- x22 + 0x68
  4006b4:	b9403ba0 	ldr	w0, [x29,#56]               // w0 <- [x29 + 56]
  4006b8:	aa1603e1 	mov	x1, x22                     // x1 <- x22
  4006bc:	aa1303e2 	mov	x2, x19                     // x2 <- x19
  4006c0:	d2808003 	mov	x3, #0x400                 	// x3 <- 0x400
  4006c4:	97ffffcf 	bl	400600 <__read_chk@plt>     // __read_chk()
  4006c8:	eb00027f 	cmp	x19, x0                     // x19 == x0
  4006cc:	54000321 	b.ne	400730 <main+0x100>       // if not equal
  4006d0:	340001b4 	cbz	w20, 400704 <main+0xd4>     // Compare and branch if zero
  4006d4:	51000685 	sub	w5, w20, #0x1               // w5 <- w20 - 0x1
  4006d8:	910004a5 	add	x5, x5, #0x1                // x5 <- x5 + 0x1
  4006dc:	d2800000 	mov	x0, #0x0                   	// x0 <- 0x0
  4006e0:	aa1503e2 	mov	x2, x21                     // x2 <- x21
  4006e4:	aa1603e1 	mov	x1, x22                     // x1 <- x22
  4006e8:	38626803 	ldrb	w3, [x0,x2]               // w3 <- byte ptr[x0+x2]
  4006ec:	38616804 	ldrb	w4, [x0,x1]               // w4 <- byte ptr[x0+x1]
  4006f0:	4a030083 	eor	w3, w4, w3                  // w3 <- w4 ^ w3
  4006f4:	38226803 	strb	w3, [x0,x2]               // byte ptr [x0+x2] <- x3
  4006f8:	91000400 	add	x0, x0, #0x1                // x0 <- x0 + 0x1
  4006fc:	eb05001f 	cmp	x0, x5                      // x0 == x5
  400700:	54ffff41 	b.ne	4006e8 <main+0xb8>        // if not equal
  400704:	94004359 	bl	411468 <code>               // call to 411468
  400708:	52800000 	mov	w0, #0x0                   	// w0 <- 0
  40070c:	a94153f3 	ldp	x19, x20, [sp,#16]          // x19 <- [sp+16] ; x20 <- [sp+8]
  400710:	a9425bf5 	ldp	x21, x22, [sp,#32]          // x21 <- [sp+32] ; x22 <- [sp+24]
  400714:	a8c47bfd 	ldp	x29, x30, [sp],#64          // x29 <- [sp] ; x30 <- [sp-8] ; sp <- sp + 64
  400718:	d65f03c0 	ret                             // return
  40071c:	90000000 	adrp	x0, 400000 <_init-0x558>  // x0 <- 400000
  400720:	91278000 	add	x0, x0, #0x9e0              // x0 <- x0 + 0x9e0
  400724:	97ffffaf 	bl	4005e0 <puts@plt>           // puts()
  400728:	52800000 	mov	w0, #0x0                   	// w0 <- 0x0
  40072c:	97ffff99 	bl	400590 <_exit@plt>          // exit()
  400730:	90000000 	adrp	x0, 400000 <_init-0x558>  // x0 <- 400000
  400734:	9127c000 	add	x0, x0, #0x9f0              // x0 <- x0 + 0x9f0
  400738:	97ffffaa 	bl	4005e0 <puts@plt>           // puts
  40073c:	52800000 	mov	w0, #0x0                   	// w0 <- 0x0
  400740:	97ffff94 	bl	400590 <_exit@plt>          // exit()
  400744:	00000000 	.inst	0x00000000 ; undefined

0000000000400748 <_start>:
  400748:	d280001d 	mov	x29, #0x0                   	// #0
  40074c:	d280001e 	mov	x30, #0x0                   	// #0
  400750:	910003fd 	mov	x29, sp
  400754:	aa0003e5 	mov	x5, x0
  400758:	f94003e1 	ldr	x1, [sp]
  40075c:	910023e2 	add	x2, sp, #0x8
  400760:	910003e6 	mov	x6, sp
  400764:	580000a0 	ldr	x0, 400778 <_start+0x30>
  400768:	580000c3 	ldr	x3, 400780 <_start+0x38>
  40076c:	580000e4 	ldr	x4, 400788 <_start+0x40>
  400770:	97ffff90 	bl	4005b0 <__libc_start_main@plt>
  400774:	97ffff97 	bl	4005d0 <abort@plt>
  400778:	00400630 	.word	0x00400630
  40077c:	00000000 	.word	0x00000000
  400780:	00400938 	.word	0x00400938
  400784:	00000000 	.word	0x00000000
  400788:	004009b0 	.word	0x004009b0
  40078c:	00000000 	.word	0x00000000

0000000000400790 <call_weak_fn>:
  400790:	90000080 	adrp	x0, 410000 <__FRAME_END__+0xf608>
  400794:	f947f000 	ldr	x0, [x0,#4064]
  400798:	b4000040 	cbz	x0, 4007a0 <call_weak_fn+0x10>
  40079c:	17ffff89 	b	4005c0 <__gmon_start__@plt>
  4007a0:	d65f03c0 	ret
  4007a4:	00000000 	.inst	0x00000000 ; undefined

00000000004007a8 <deregister_tm_clones>:
  4007a8:	b0000081 	adrp	x1, 411000 <_GLOBAL_OFFSET_TABLE_+0x28>
  4007ac:	b0000080 	adrp	x0, 411000 <_GLOBAL_OFFSET_TABLE_+0x28>
  4007b0:	91018021 	add	x1, x1, #0x60
  4007b4:	a9bf7bfd 	stp	x29, x30, [sp,#-16]!
  4007b8:	91018000 	add	x0, x0, #0x60
  4007bc:	91001c21 	add	x1, x1, #0x7
  4007c0:	910003fd 	mov	x29, sp
  4007c4:	cb000021 	sub	x1, x1, x0
  4007c8:	f100383f 	cmp	x1, #0xe
  4007cc:	54000068 	b.hi	4007d8 <deregister_tm_clones+0x30>
  4007d0:	a8c17bfd 	ldp	x29, x30, [sp],#16
  4007d4:	d65f03c0 	ret
  4007d8:	58000081 	ldr	x1, 4007e8 <deregister_tm_clones+0x40>
  4007dc:	b4ffffa1 	cbz	x1, 4007d0 <deregister_tm_clones+0x28>
  4007e0:	d63f0020 	blr	x1
  4007e4:	17fffffb 	b	4007d0 <deregister_tm_clones+0x28>
	...

00000000004007f0 <register_tm_clones>:
  4007f0:	b0000080 	adrp	x0, 411000 <_GLOBAL_OFFSET_TABLE_+0x28>
  4007f4:	b0000081 	adrp	x1, 411000 <_GLOBAL_OFFSET_TABLE_+0x28>
  4007f8:	91018000 	add	x0, x0, #0x60
  4007fc:	91018021 	add	x1, x1, #0x60
  400800:	cb000021 	sub	x1, x1, x0
  400804:	a9bf7bfd 	stp	x29, x30, [sp,#-16]!
  400808:	9343fc21 	asr	x1, x1, #3
  40080c:	910003fd 	mov	x29, sp
  400810:	8b41fc21 	add	x1, x1, x1, lsr #63
  400814:	9341fc21 	asr	x1, x1, #1
  400818:	b5000061 	cbnz	x1, 400824 <register_tm_clones+0x34>
  40081c:	a8c17bfd 	ldp	x29, x30, [sp],#16
  400820:	d65f03c0 	ret
  400824:	580000a2 	ldr	x2, 400838 <register_tm_clones+0x48>
  400828:	b4ffffa2 	cbz	x2, 40081c <register_tm_clones+0x2c>
  40082c:	d63f0040 	blr	x2
  400830:	17fffffb 	b	40081c <register_tm_clones+0x2c>
  400834:	d503201f 	nop
	...

0000000000400840 <__do_global_dtors_aux>:
  400840:	a9be7bfd 	stp	x29, x30, [sp,#-32]!
  400844:	910003fd 	mov	x29, sp
  400848:	f9000bf3 	str	x19, [sp,#16]
  40084c:	b0000093 	adrp	x19, 411000 <_GLOBAL_OFFSET_TABLE_+0x28>
  400850:	39418260 	ldrb	w0, [x19,#96]
  400854:	35000080 	cbnz	w0, 400864 <__do_global_dtors_aux+0x24>
  400858:	97ffffd4 	bl	4007a8 <deregister_tm_clones>
  40085c:	52800020 	mov	w0, #0x1                   	// #1
  400860:	39018260 	strb	w0, [x19,#96]
  400864:	f9400bf3 	ldr	x19, [sp,#16]
  400868:	a8c27bfd 	ldp	x29, x30, [sp],#32
  40086c:	d65f03c0 	ret

0000000000400870 <frame_dummy>:
  400870:	a9bf7bfd 	stp	x29, x30, [sp,#-16]!
  400874:	910003fd 	mov	x29, sp
  400878:	90000080 	adrp	x0, 410000 <__FRAME_END__+0xf608>
  40087c:	f9470001 	ldr	x1, [x0,#3584]
  400880:	91380000 	add	x0, x0, #0xe00
  400884:	b4000081 	cbz	x1, 400894 <frame_dummy+0x24>
  400888:	580000c1 	ldr	x1, 4008a0 <frame_dummy+0x30>
  40088c:	b4000041 	cbz	x1, 400894 <frame_dummy+0x24>
  400890:	d63f0020 	blr	x1
  400894:	a8c17bfd 	ldp	x29, x30, [sp],#16
  400898:	17ffffd6 	b	4007f0 <register_tm_clones>
  40089c:	d503201f 	nop
	...

00000000004008a8 <readline>:
  4008a8:	a9bd7bfd 	stp	x29, x30, [sp,#-48]!
  4008ac:	910003fd 	mov	x29, sp
  4008b0:	a9025bf5 	stp	x21, x22, [sp,#32]
  4008b4:	a90153f3 	stp	x19, x20, [sp,#16]
  4008b8:	2a0103f5 	mov	w21, w1
  4008bc:	aa0003f6 	mov	x22, x0
  4008c0:	aa0003f3 	mov	x19, x0
  4008c4:	34000201 	cbz	w1, 400904 <readline+0x5c>
  4008c8:	52800014 	mov	w20, #0x0                   	// #0
  4008cc:	14000007 	b	4008e8 <readline+0x40>
  4008d0:	39400262 	ldrb	w2, [x19]
  4008d4:	7100285f 	cmp	w2, #0xa
  4008d8:	54000160 	b.eq	400904 <readline+0x5c>
  4008dc:	6b15029f 	cmp	w20, w21
  4008e0:	91000673 	add	x19, x19, #0x1
  4008e4:	540001c0 	b.eq	40091c <readline+0x74>
  4008e8:	aa1303e1 	mov	x1, x19
  4008ec:	52800000 	mov	w0, #0x0                   	// #0
  4008f0:	d2800022 	mov	x2, #0x1                   	// #1
  4008f4:	97ffff47 	bl	400610 <read@plt>
  4008f8:	f100041f 	cmp	x0, #0x1
  4008fc:	11000694 	add	w20, w20, #0x1
  400900:	54fffe80 	b.eq	4008d0 <readline+0x28>
  400904:	3900027f 	strb	wzr, [x19]
  400908:	52800000 	mov	w0, #0x0                   	// #0
  40090c:	a94153f3 	ldp	x19, x20, [sp,#16]
  400910:	a9425bf5 	ldp	x21, x22, [sp,#32]
  400914:	a8c37bfd 	ldp	x29, x30, [sp],#48
  400918:	d65f03c0 	ret
  40091c:	8b3442d3 	add	x19, x22, w20, uxtw
  400920:	3900027f 	strb	wzr, [x19]
  400924:	52800000 	mov	w0, #0x0                   	// #0
  400928:	a94153f3 	ldp	x19, x20, [sp,#16]
  40092c:	a9425bf5 	ldp	x21, x22, [sp,#32]
  400930:	a8c37bfd 	ldp	x29, x30, [sp],#48
  400934:	d65f03c0 	ret

0000000000400938 <__libc_csu_init>:
  400938:	a9bc7bfd 	stp	x29, x30, [sp,#-64]!
  40093c:	910003fd 	mov	x29, sp
  400940:	a90153f3 	stp	x19, x20, [sp,#16]
  400944:	a90363f7 	stp	x23, x24, [sp,#48]
  400948:	90000094 	adrp	x20, 410000 <__FRAME_END__+0xf608>
  40094c:	90000098 	adrp	x24, 410000 <__FRAME_END__+0xf608>
  400950:	9137c318 	add	x24, x24, #0xdf0
  400954:	9137e294 	add	x20, x20, #0xdf8
  400958:	cb180294 	sub	x20, x20, x24
  40095c:	9343fe94 	asr	x20, x20, #3
  400960:	a9025bf5 	stp	x21, x22, [sp,#32]
  400964:	2a0003f7 	mov	w23, w0
  400968:	aa0103f6 	mov	x22, x1
  40096c:	aa0203f5 	mov	x21, x2
  400970:	d2800013 	mov	x19, #0x0                   	// #0
  400974:	97fffef9 	bl	400558 <_init>
  400978:	b4000134 	cbz	x20, 40099c <__libc_csu_init+0x64>
  40097c:	f8737b03 	ldr	x3, [x24,x19,lsl #3]
  400980:	2a1703e0 	mov	w0, w23
  400984:	aa1603e1 	mov	x1, x22
  400988:	aa1503e2 	mov	x2, x21
  40098c:	d63f0060 	blr	x3
  400990:	91000673 	add	x19, x19, #0x1
  400994:	eb14027f 	cmp	x19, x20
  400998:	54ffff21 	b.ne	40097c <__libc_csu_init+0x44>
  40099c:	a94153f3 	ldp	x19, x20, [sp,#16]
  4009a0:	a9425bf5 	ldp	x21, x22, [sp,#32]
  4009a4:	a94363f7 	ldp	x23, x24, [sp,#48]
  4009a8:	a8c47bfd 	ldp	x29, x30, [sp],#64
  4009ac:	d65f03c0 	ret

00000000004009b0 <__libc_csu_fini>:
  4009b0:	d65f03c0 	ret

Disassembly of section .fini:

00000000004009b4 <_fini>:
  4009b4:	a9bf7bfd 	stp	x29, x30, [sp,#-16]!
  4009b8:	910003fd 	mov	x29, sp
  4009bc:	a8c17bfd 	ldp	x29, x30, [sp],#16
  4009c0:	d65f03c0 	ret
